target datalayout = "e-m:e-p270:32:32-p271:32:32-p272:64:64-i64:64-i128:128-f80:128-n8:16:32:64-S128"
target triple = "x86_64-pc-linux-gnu"

%"struct.net::QuicMultipathSentPacketManager::PathSentPacketManagerInfo" = type <{ ptr, i32, [4 x i8] }>
%"class.net::QuicMultipathSentPacketManager" = type { %"class.net::QuicSentPacketManagerInterface", %"class.std::vector", ptr }
%"class.net::QuicSentPacketManagerInterface" = type { ptr }
%"class.std::vector" = type { %"struct.std::_Vector_base" }
%"struct.std::_Vector_base" = type { %"struct.std::_Vector_base<net::QuicMultipathSentPacketManager::PathSentPacketManagerInfo, std::allocator<net::QuicMultipathSentPacketManager::PathSentPacketManagerInfo>>::_Vector_impl" }
%"struct.std::_Vector_base<net::QuicMultipathSentPacketManager::PathSentPacketManagerInfo, std::allocator<net::QuicMultipathSentPacketManager::PathSentPacketManagerInfo>>::_Vector_impl" = type { %"struct.std::_Vector_base<net::QuicMultipathSentPacketManager::PathSentPacketManagerInfo, std::allocator<net::QuicMultipathSentPacketManager::PathSentPacketManagerInfo>>::_Vector_impl_data" }
%"struct.std::_Vector_base<net::QuicMultipathSentPacketManager::PathSentPacketManagerInfo, std::allocator<net::QuicMultipathSentPacketManager::PathSentPacketManagerInfo>>::_Vector_impl_data" = type { ptr, ptr, ptr }
%"class.net::QuicTime" = type { i64 }

; Function Attrs: inlinehint mustprogress nounwind uwtable
define linkonce_odr void @_ZN3net8QuicTimeC2El(ptr noundef nonnull align 8 dereferenceable(8) %0, i64 noundef %1) unnamed_addr #1 comdat align 2 {
  %3 = alloca ptr, align 8
  %4 = alloca i64, align 8
  store ptr %0, ptr %3, align 8, !tbaa !131
  store i64 %1, ptr %4, align 8, !tbaa !44
  %5 = load ptr, ptr %3, align 8
  %6 = getelementptr inbounds nuw %"class.net::QuicTime", ptr %5, i32 0, i32 0
  %7 = load i64, ptr %4, align 8, !tbaa !44
  store i64 %7, ptr %6, align 8, !tbaa !133
  ret void
}

; Function Attrs: inlinehint mustprogress nounwind uwtable
define linkonce_odr noundef zeroext i1 @_ZN3netltENS_8QuicTimeES0_(i64 %0, i64 %1) #1 comdat {
  %3 = alloca %"class.net::QuicTime", align 8
  %4 = alloca %"class.net::QuicTime", align 8
  %5 = getelementptr inbounds nuw %"class.net::QuicTime", ptr %3, i32 0, i32 0
  store i64 %0, ptr %5, align 8
  %6 = getelementptr inbounds nuw %"class.net::QuicTime", ptr %4, i32 0, i32 0
  store i64 %1, ptr %6, align 8
  %7 = getelementptr inbounds nuw %"class.net::QuicTime", ptr %3, i32 0, i32 0
  %8 = load i64, ptr %7, align 8, !tbaa !133
  %9 = getelementptr inbounds nuw %"class.net::QuicTime", ptr %4, i32 0, i32 0
  %10 = load i64, ptr %9, align 8, !tbaa !133
  %11 = icmp slt i64 %8, %10
  ret i1 %11
}

; Function Attrs: inlinehint mustprogress nounwind uwtable
define linkonce_odr noundef zeroext i1 @_ZNK3net8QuicTime13IsInitializedEv(ptr noundef nonnull align 8 dereferenceable(8) %0) #1 comdat align 2 {
  %2 = alloca ptr, align 8
  store ptr %0, ptr %2, align 8, !tbaa !131
  %3 = load ptr, ptr %2, align 8
  %4 = getelementptr inbounds nuw %"class.net::QuicTime", ptr %3, i32 0, i32 0
  %5 = load i64, ptr %4, align 8, !tbaa !133
  %6 = icmp ne i64 0, %5
  ret i1 %6
}

; Function Attrs: mustprogress nounwind uwtable
define linkonce_odr noundef nonnull align 8 dereferenceable(12) ptr @_ZNKSt6vectorIN3net30QuicMultipathSentPacketManager25PathSentPacketManagerInfoESaIS2_EEixEm(ptr noundef nonnull align 8 dereferenceable(24) %0, i64 noundef %1) #2 comdat align 2 {
  %3 = alloca ptr, align 8
  %4 = alloca i64, align 8
  store ptr %0, ptr %3, align 8, !tbaa !22
  store i64 %1, ptr %4, align 8, !tbaa !44
  %5 = load ptr, ptr %3, align 8
  %6 = getelementptr inbounds nuw %"struct.std::_Vector_base", ptr %5, i32 0, i32 0
  %7 = getelementptr inbounds nuw %"struct.std::_Vector_base<net::QuicMultipathSentPacketManager::PathSentPacketManagerInfo, std::allocator<net::QuicMultipathSentPacketManager::PathSentPacketManagerInfo>>::_Vector_impl_data", ptr %6, i32 0, i32 0
  %8 = load ptr, ptr %7, align 8, !tbaa !25
  %9 = load i64, ptr %4, align 8, !tbaa !44
  %10 = getelementptr inbounds nuw %"struct.net::QuicMultipathSentPacketManager::PathSentPacketManagerInfo", ptr %8, i64 %9
  ret ptr %10
}

; Function Attrs: mustprogress nounwind uwtable
define linkonce_odr noundef i64 @_ZNKSt6vectorIN3net30QuicMultipathSentPacketManager25PathSentPacketManagerInfoESaIS2_EE4sizeEv(ptr noundef nonnull align 8 dereferenceable(24) %0) #2 comdat align 2 {
  %2 = alloca ptr, align 8
  store ptr %0, ptr %2, align 8, !tbaa !22
  %3 = load ptr, ptr %2, align 8
  %4 = getelementptr inbounds nuw %"struct.std::_Vector_base", ptr %3, i32 0, i32 0
  %5 = getelementptr inbounds nuw %"struct.std::_Vector_base<net::QuicMultipathSentPacketManager::PathSentPacketManagerInfo, std::allocator<net::QuicMultipathSentPacketManager::PathSentPacketManagerInfo>>::_Vector_impl_data", ptr %4, i32 0, i32 1
  %6 = load ptr, ptr %5, align 8, !tbaa !26
  %7 = getelementptr inbounds nuw %"struct.std::_Vector_base", ptr %3, i32 0, i32 0
  %8 = getelementptr inbounds nuw %"struct.std::_Vector_base<net::QuicMultipathSentPacketManager::PathSentPacketManagerInfo, std::allocator<net::QuicMultipathSentPacketManager::PathSentPacketManagerInfo>>::_Vector_impl_data", ptr %7, i32 0, i32 0
  %9 = load ptr, ptr %8, align 8, !tbaa !25
  %10 = ptrtoint ptr %6 to i64
  %11 = ptrtoint ptr %9 to i64
  %12 = sub i64 %10, %11
  %13 = sdiv exact i64 %12, 16
  ret i64 %13
}

; Function Attrs: inlinehint mustprogress uwtable
define linkonce_odr i64 @_ZN3net8QuicTime4ZeroEv() #9 comdat align 2 {
  %1 = alloca %"class.net::QuicTime", align 8
  call void @_ZN3net8QuicTimeC2El(ptr noundef nonnull align 8 dereferenceable(8) %1, i64 noundef 0)
  %2 = getelementptr inbounds nuw %"class.net::QuicTime", ptr %1, i32 0, i32 0
  %3 = load i64, ptr %2, align 8
  ret i64 %3
}

; Function Attrs: mustprogress uwtable
define noundef zeroext i8 @_ZNK3net30QuicMultipathSentPacketManager34DetermineRetransmissionTimeoutPathEv(ptr noundef nonnull align 8 dereferenceable(40) %0) #0 align 2 {
  %2 = alloca ptr, align 8
  %3 = alloca %"class.net::QuicTime", align 8
  %4 = alloca i8, align 1
  %5 = alloca i64, align 8
  %6 = alloca i32, align 4
  %7 = alloca %"class.net::QuicTime", align 8
  %8 = alloca %"class.net::QuicTime", align 8
  %9 = alloca %"class.net::QuicTime", align 8
  store ptr %0, ptr %2, align 8, !tbaa !3
  %10 = load ptr, ptr %2, align 8
  call void @llvm.lifetime.start.p0(i64 8, ptr %3) #15
  %11 = call i64 @_ZN3net8QuicTime4ZeroEv()
  %12 = getelementptr inbounds nuw %"class.net::QuicTime", ptr %3, i32 0, i32 0
  store i64 %11, ptr %12, align 8
  call void @llvm.lifetime.start.p0(i64 1, ptr %4) #15
  store i8 -1, ptr %4, align 1, !tbaa !42
  call void @llvm.lifetime.start.p0(i64 8, ptr %5) #15
  store i64 0, ptr %5, align 8, !tbaa !44
  br label %13

13:                                               ; preds = %62, %1
  %14 = load i64, ptr %5, align 8, !tbaa !44
  %15 = getelementptr inbounds nuw %"class.net::QuicMultipathSentPacketManager", ptr %10, i32 0, i32 1
  %16 = call noundef i64 @_ZNKSt6vectorIN3net30QuicMultipathSentPacketManager25PathSentPacketManagerInfoESaIS2_EE4sizeEv(ptr noundef nonnull align 8 dereferenceable(24) %15) #15
  %17 = icmp ult i64 %14, %16
  br i1 %17, label %19, label %18

18:                                               ; preds = %13
  store i32 2, ptr %6, align 4
  call void @llvm.lifetime.end.p0(i64 8, ptr %5) #15
  br label %65

19:                                               ; preds = %13
  %20 = getelementptr inbounds nuw %"class.net::QuicMultipathSentPacketManager", ptr %10, i32 0, i32 1
  %21 = load i64, ptr %5, align 8, !tbaa !44
  %22 = call noundef nonnull align 8 dereferenceable(12) ptr @_ZNKSt6vectorIN3net30QuicMultipathSentPacketManager25PathSentPacketManagerInfoESaIS2_EEixEm(ptr noundef nonnull align 8 dereferenceable(24) %20, i64 noundef %21) #15
  %23 = getelementptr inbounds nuw %"struct.net::QuicMultipathSentPacketManager::PathSentPacketManagerInfo", ptr %22, i32 0, i32 0
  %24 = load ptr, ptr %23, align 8, !tbaa !27
  %25 = icmp eq ptr %24, null
  br i1 %25, label %33, label %26

26:                                               ; preds = %19
  %27 = getelementptr inbounds nuw %"class.net::QuicMultipathSentPacketManager", ptr %10, i32 0, i32 1
  %28 = load i64, ptr %5, align 8, !tbaa !44
  %29 = call noundef nonnull align 8 dereferenceable(12) ptr @_ZNKSt6vectorIN3net30QuicMultipathSentPacketManager25PathSentPacketManagerInfoESaIS2_EEixEm(ptr noundef nonnull align 8 dereferenceable(24) %27, i64 noundef %28) #15
  %30 = getelementptr inbounds nuw %"struct.net::QuicMultipathSentPacketManager::PathSentPacketManagerInfo", ptr %29, i32 0, i32 1
  %31 = load i32, ptr %30, align 8, !tbaa !43
  %32 = icmp ne i32 %31, 0
  br i1 %32, label %33, label %34

33:                                               ; preds = %26, %19
  br label %62

34:                                               ; preds = %26
  call void @llvm.lifetime.start.p0(i64 8, ptr %7) #15
  %35 = getelementptr inbounds nuw %"class.net::QuicMultipathSentPacketManager", ptr %10, i32 0, i32 1
  %36 = load i64, ptr %5, align 8, !tbaa !44
  %37 = call noundef nonnull align 8 dereferenceable(12) ptr @_ZNKSt6vectorIN3net30QuicMultipathSentPacketManager25PathSentPacketManagerInfoESaIS2_EEixEm(ptr noundef nonnull align 8 dereferenceable(24) %35, i64 noundef %36) #15
  %38 = getelementptr inbounds nuw %"struct.net::QuicMultipathSentPacketManager::PathSentPacketManagerInfo", ptr %37, i32 0, i32 0
  %39 = load ptr, ptr %38, align 8, !tbaa !27
  %40 = load ptr, ptr %39, align 8, !tbaa !12
  %41 = getelementptr inbounds ptr, ptr %40, i64 18
  %42 = load ptr, ptr %41, align 8
  %43 = call i64 %42(ptr noundef nonnull align 8 dereferenceable(8) %39)
  %44 = getelementptr inbounds nuw %"class.net::QuicTime", ptr %7, i32 0, i32 0
  store i64 %43, ptr %44, align 8
  %45 = call noundef zeroext i1 @_ZNK3net8QuicTime13IsInitializedEv(ptr noundef nonnull align 8 dereferenceable(8) %7)
  br i1 %45, label %47, label %46

46:                                               ; preds = %34
  store i32 4, ptr %6, align 4
  br label %59

47:                                               ; preds = %34
  %48 = call noundef zeroext i1 @_ZNK3net8QuicTime13IsInitializedEv(ptr noundef nonnull align 8 dereferenceable(8) %3)
  br i1 %48, label %49, label %55

49:                                               ; preds = %47
  call void @llvm.memcpy.p0.p0.i64(ptr align 8 %8, ptr align 8 %7, i64 8, i1 false), !tbaa.struct !46
  call void @llvm.memcpy.p0.p0.i64(ptr align 8 %9, ptr align 8 %3, i64 8, i1 false), !tbaa.struct !46
  %50 = getelementptr inbounds nuw %"class.net::QuicTime", ptr %8, i32 0, i32 0
  %51 = load i64, ptr %50, align 8
  %52 = getelementptr inbounds nuw %"class.net::QuicTime", ptr %9, i32 0, i32 0
  %53 = load i64, ptr %52, align 8
  %54 = call noundef zeroext i1 @_ZN3netltENS_8QuicTimeES0_(i64 %51, i64 %53)
  br i1 %54, label %55, label %58

55:                                               ; preds = %49, %47
  call void @llvm.memcpy.p0.p0.i64(ptr align 8 %3, ptr align 8 %7, i64 8, i1 false), !tbaa.struct !46
  %56 = load i64, ptr %5, align 8, !tbaa !44
  %57 = trunc i64 %56 to i8
  store i8 %57, ptr %4, align 1, !tbaa !42
  br label %58

58:                                               ; preds = %55, %49
  store i32 0, ptr %6, align 4
  br label %59

59:                                               ; preds = %58, %46
  call void @llvm.lifetime.end.p0(i64 8, ptr %7) #15
  %60 = load i32, ptr %6, align 4
  switch i32 %60, label %67 [
    i32 0, label %61
    i32 4, label %62
  ]

61:                                               ; preds = %59
  br label %62

62:                                               ; preds = %61, %59, %33
  %63 = load i64, ptr %5, align 8, !tbaa !44
  %64 = add i64 %63, 1
  store i64 %64, ptr %5, align 8, !tbaa !44
  br label %13, !llvm.loop !115

65:                                               ; preds = %18
  %66 = load i8, ptr %4, align 1, !tbaa !42
  store i32 1, ptr %6, align 4
  call void @llvm.lifetime.end.p0(i64 1, ptr %4) #15
  call void @llvm.lifetime.end.p0(i64 8, ptr %3) #15
  ret i8 %66

67:                                               ; preds = %59
  unreachable
}