; Function Attrs: mustprogress uwtable
define noundef zeroext i8 @_ZNK3net30QuicMultipathSentPacketManager34DetermineRetransmissionTimeoutPathEv(ptr noundef nonnull readonly align 8 captures(none) dereferenceable(40) %0) local_unnamed_addr #0 align 2 {
  %2 = getelementptr inbounds nuw i8, ptr %0, i64 8
  %3 = getelementptr inbounds nuw i8, ptr %0, i64 16
  %4 = load ptr, ptr %3, align 8, !tbaa !17
  %5 = load ptr, ptr %2, align 8, !tbaa !19
  %.not18 = icmp eq ptr %4, %5
  br i1 %.not18, label %._crit_edge, label %.lr.ph

._crit_edge:                                      ; preds = %22, %1
  %.0.lcssa = phi i8 [ -1, %1 ], [ %.1, %22 ]
  ret i8 %.0.lcssa

.lr.ph:                                           ; preds = %1, %22
  %6 = phi ptr [ %25, %22 ], [ %5, %1 ]
  %.017 = phi i8 [ %.1, %22 ], [ -1, %1 ]
  %.0816 = phi i64 [ %23, %22 ], [ 0, %1 ]
  %.sroa.011.015 = phi i64 [ %.sroa.011.1, %22 ], [ 0, %1 ]
  %7 = getelementptr inbounds nuw %"struct.net::QuicMultipathSentPacketManager::PathSentPacketManagerInfo", ptr %6, i64 %.0816
  %8 = load ptr, ptr %7, align 8, !tbaa !21
  %9 = icmp eq ptr %8, null
  br i1 %9, label %22, label %10

10:                                               ; preds = %.lr.ph
  %11 = getelementptr inbounds nuw i8, ptr %7, i64 8
  %12 = load i32, ptr %11, align 8, !tbaa !25
  %.not = icmp eq i32 %12, 0
  br i1 %.not, label %13, label %22

13:                                               ; preds = %10
  %14 = load ptr, ptr %8, align 8, !tbaa !3
  %15 = getelementptr inbounds nuw i8, ptr %14, i64 144
  %16 = load ptr, ptr %15, align 8
  %17 = tail call i64 %16(ptr noundef nonnull align 8 dereferenceable(8) %8)
  %.not14 = icmp eq i64 %17, 0
  br i1 %.not14, label %22, label %18

18:                                               ; preds = %13
  %19 = icmp eq i64 %.sroa.011.015, 0
  %20 = icmp slt i64 %17, %.sroa.011.015
  %or.cond = or i1 %19, %20
  %21 = trunc i64 %.0816 to i8
  %spec.select = select i1 %or.cond, i64 %17, i64 %.sroa.011.015
  %spec.select13 = select i1 %or.cond, i8 %21, i8 %.017
  br label %22

22:                                               ; preds = %18, %13, %.lr.ph, %10
  %.sroa.011.1 = phi i64 [ %.sroa.011.015, %.lr.ph ], [ %.sroa.011.015, %10 ], [ %.sroa.011.015, %13 ], [ %spec.select, %18 ]
  %.1 = phi i8 [ %.017, %.lr.ph ], [ %.017, %10 ], [ %.017, %13 ], [ %spec.select13, %18 ]
  %23 = add nuw i64 %.0816, 1
  %24 = load ptr, ptr %3, align 8, !tbaa !17
  %25 = load ptr, ptr %2, align 8, !tbaa !19
  %26 = ptrtoint ptr %24 to i64
  %27 = ptrtoint ptr %25 to i64
  %28 = sub i64 %26, %27
  %29 = ashr exact i64 %28, 4
  %30 = icmp ult i64 %23, %29
  br i1 %30, label %.lr.ph, label %._crit_edge, !llvm.loop !108
}